target datalayout = "e-m:e-p270:32:32-p271:32:32-p272:64:64-i64:64-i128:128-f80:128-n8:16:32:64-S128"
target triple = "x86_64-pc-linux-gnu"

@.str.11 = private unnamed_addr constant [37 x i8] c"../openssl/test/rsa_sp800_56b_test.c\00", align 1
@.str.43 = private unnamed_addr constant [16 x i8] c"key = RSA_new()\00", align 1
@.str.53 = private unnamed_addr constant [27 x i8] c"RSA_set0_key(key, n, e, d)\00", align 1
@.str.89 = private unnamed_addr constant [38 x i8] c"ossl_rsa_sp800_56b_check_private(key)\00", align 1
@.str.90 = private unnamed_addr constant [38 x i8] c"n = bn_load_new(cav_n, sizeof(cav_n))\00", align 1
@.str.91 = private unnamed_addr constant [38 x i8] c"d = bn_load_new(cav_d, sizeof(cav_d))\00", align 1
@.str.92 = private unnamed_addr constant [38 x i8] c"e = bn_load_new(cav_e, sizeof(cav_e))\00", align 1
@cav_e = internal constant [3 x i8] c"\01\00\01", align 1
@.str.93 = private unnamed_addr constant [18 x i8] c"BN_set_word(d, 0)\00", align 1
@.str.94 = private unnamed_addr constant [14 x i8] c"BN_copy(d, n)\00", align 1

; Function Attrs: nounwind uwtable
define internal ptr @bn_load_new(ptr noundef %0, i32 noundef %1) #0 {
  %3 = alloca ptr, align 8
  %4 = alloca i32, align 4
  %5 = alloca ptr, align 8
  store ptr %0, ptr %3, align 8, !tbaa !36
  store i32 %1, ptr %4, align 4, !tbaa !4
  call void @llvm.lifetime.start.p0(i64 8, ptr %5) #3
  %6 = call ptr @BN_new()
  store ptr %6, ptr %5, align 8, !tbaa !8
  %7 = load ptr, ptr %5, align 8, !tbaa !8
  %8 = icmp ne ptr %7, null
  br i1 %8, label %9, label %14

9:                                                ; preds = %2
  %10 = load ptr, ptr %3, align 8, !tbaa !36
  %11 = load i32, ptr %4, align 4, !tbaa !4
  %12 = load ptr, ptr %5, align 8, !tbaa !8
  %13 = call ptr @BN_bin2bn(ptr noundef %10, i32 noundef %11, ptr noundef %12)
  br label %14

14:                                               ; preds = %9, %2
  %15 = load ptr, ptr %5, align 8, !tbaa !8
  call void @llvm.lifetime.end.p0(i64 8, ptr %5) #3
  ret ptr %15
}

; Function Attrs: nounwind uwtable
define internal i32 @test_check_private_key() #0 {
  %1 = alloca i32, align 4
  %2 = alloca ptr, align 8
  %3 = alloca ptr, align 8
  %4 = alloca ptr, align 8
  %5 = alloca ptr, align 8
  call void @llvm.lifetime.start.p0(i64 4, ptr %1) #3
  store i32 0, ptr %1, align 4, !tbaa !4
  call void @llvm.lifetime.start.p0(i64 8, ptr %2) #3
  store ptr null, ptr %2, align 8, !tbaa !8
  call void @llvm.lifetime.start.p0(i64 8, ptr %3) #3
  store ptr null, ptr %3, align 8, !tbaa !8
  call void @llvm.lifetime.start.p0(i64 8, ptr %4) #3
  store ptr null, ptr %4, align 8, !tbaa !8
  call void @llvm.lifetime.start.p0(i64 8, ptr %5) #3
  store ptr null, ptr %5, align 8, !tbaa !13
  %6 = call ptr @RSA_new()
  store ptr %6, ptr %5, align 8, !tbaa !13
  %7 = call i32 @test_ptr(ptr noundef @.str.11, i32 noundef 509, ptr noundef @.str.43, ptr noundef %6)
  %8 = icmp ne i32 %7, 0
  br i1 %8, label %9, label %38

9:                                                ; preds = %0
  %10 = load ptr, ptr %5, align 8, !tbaa !13
  %11 = call i32 @ossl_rsa_sp800_56b_check_private(ptr noundef %10)
  %12 = icmp ne i32 %11, 0
  %13 = zext i1 %12 to i32
  %14 = call i32 @test_false(ptr noundef @.str.11, i32 noundef 511, ptr noundef @.str.89, i32 noundef %13)
  %15 = icmp ne i32 %14, 0
  br i1 %15, label %16, label %38

16:                                               ; preds = %9
  %17 = call ptr @bn_load_new(ptr noundef @cav_n, i32 noundef 256)
  store ptr %17, ptr %2, align 8, !tbaa !8
  %18 = call i32 @test_ptr(ptr noundef @.str.11, i32 noundef 513, ptr noundef @.str.90, ptr noundef %17)
  %19 = icmp ne i32 %18, 0
  br i1 %19, label %20, label %38

20:                                               ; preds = %16
  %21 = call ptr @bn_load_new(ptr noundef @cav_d, i32 noundef 256)
  store ptr %21, ptr %3, align 8, !tbaa !8
  %22 = call i32 @test_ptr(ptr noundef @.str.11, i32 noundef 514, ptr noundef @.str.91, ptr noundef %21)
  %23 = icmp ne i32 %22, 0
  br i1 %23, label %24, label %38

24:                                               ; preds = %20
  %25 = call ptr @bn_load_new(ptr noundef @cav_e, i32 noundef 3)
  store ptr %25, ptr %4, align 8, !tbaa !8
  %26 = call i32 @test_ptr(ptr noundef @.str.11, i32 noundef 515, ptr noundef @.str.92, ptr noundef %25)
  %27 = icmp ne i32 %26, 0
  br i1 %27, label %28, label %38

28:                                               ; preds = %24
  %29 = load ptr, ptr %5, align 8, !tbaa !13
  %30 = load ptr, ptr %2, align 8, !tbaa !8
  %31 = load ptr, ptr %4, align 8, !tbaa !8
  %32 = load ptr, ptr %3, align 8, !tbaa !8
  %33 = call i32 @RSA_set0_key(ptr noundef %29, ptr noundef %30, ptr noundef %31, ptr noundef %32)
  %34 = icmp ne i32 %33, 0
  %35 = zext i1 %34 to i32
  %36 = call i32 @test_true(ptr noundef @.str.11, i32 noundef 516, ptr noundef @.str.53, i32 noundef %35)
  %37 = icmp ne i32 %36, 0
  br label %38

38:                                               ; preds = %28, %24, %20, %16, %9, %0
  %39 = phi i1 [ false, %24 ], [ false, %20 ], [ false, %16 ], [ false, %9 ], [ false, %0 ], [ %37, %28 ]
  %40 = zext i1 %39 to i32
  store i32 %40, ptr %1, align 4, !tbaa !4
  %41 = load i32, ptr %1, align 4, !tbaa !4
  %42 = icmp ne i32 %41, 0
  br i1 %42, label %47, label %43

43:                                               ; preds = %38
  %44 = load ptr, ptr %2, align 8, !tbaa !8
  call void @BN_free(ptr noundef %44)
  %45 = load ptr, ptr %4, align 8, !tbaa !8
  call void @BN_free(ptr noundef %45)
  %46 = load ptr, ptr %3, align 8, !tbaa !8
  call void @BN_free(ptr noundef %46)
  br label %84

47:                                               ; preds = %38
  %48 = load ptr, ptr %5, align 8, !tbaa !13
  %49 = call i32 @ossl_rsa_sp800_56b_check_private(ptr noundef %48)
  %50 = icmp ne i32 %49, 0
  %51 = zext i1 %50 to i32
  %52 = call i32 @test_true(ptr noundef @.str.11, i32 noundef 524, ptr noundef @.str.89, i32 noundef %51)
  %53 = icmp ne i32 %52, 0
  br i1 %53, label %54, label %81

54:                                               ; preds = %47
  %55 = load ptr, ptr %3, align 8, !tbaa !8
  %56 = call i32 @BN_set_word(ptr noundef %55, i64 noundef 0)
  %57 = icmp ne i32 %56, 0
  %58 = zext i1 %57 to i32
  %59 = call i32 @test_true(ptr noundef @.str.11, i32 noundef 526, ptr noundef @.str.93, i32 noundef %58)
  %60 = icmp ne i32 %59, 0
  br i1 %60, label %61, label %81

61:                                               ; preds = %54
  %62 = load ptr, ptr %5, align 8, !tbaa !13
  %63 = call i32 @ossl_rsa_sp800_56b_check_private(ptr noundef %62)
  %64 = icmp ne i32 %63, 0
  %65 = zext i1 %64 to i32
  %66 = call i32 @test_false(ptr noundef @.str.11, i32 noundef 527, ptr noundef @.str.89, i32 noundef %65)
  %67 = icmp ne i32 %66, 0
  br i1 %67, label %68, label %81

68:                                               ; preds = %61
  %69 = load ptr, ptr %3, align 8, !tbaa !8
  %70 = load ptr, ptr %2, align 8, !tbaa !8
  %71 = call ptr @BN_copy(ptr noundef %69, ptr noundef %70)
  %72 = call i32 @test_ptr(ptr noundef @.str.11, i32 noundef 529, ptr noundef @.str.94, ptr noundef %71)
  %73 = icmp ne i32 %72, 0
  br i1 %73, label %74, label %81

74:                                               ; preds = %68
  %75 = load ptr, ptr %5, align 8, !tbaa !13
  %76 = call i32 @ossl_rsa_sp800_56b_check_private(ptr noundef %75)
  %77 = icmp ne i32 %76, 0
  %78 = zext i1 %77 to i32
  %79 = call i32 @test_false(ptr noundef @.str.11, i32 noundef 530, ptr noundef @.str.89, i32 noundef %78)
  %80 = icmp ne i32 %79, 0
  br label %81

81:                                               ; preds = %74, %68, %61, %54, %47
  %82 = phi i1 [ false, %68 ], [ false, %61 ], [ false, %54 ], [ false, %47 ], [ %80, %74 ]
  %83 = zext i1 %82 to i32
  store i32 %83, ptr %1, align 4, !tbaa !4
  br label %84

84:                                               ; preds = %81, %43
  %85 = load ptr, ptr %5, align 8, !tbaa !13
  call void @RSA_free(ptr noundef %85)
  %86 = load i32, ptr %1, align 4, !tbaa !4
  call void @llvm.lifetime.end.p0(i64 8, ptr %5) #3
  call void @llvm.lifetime.end.p0(i64 8, ptr %4) #3
  call void @llvm.lifetime.end.p0(i64 8, ptr %3) #3
  call void @llvm.lifetime.end.p0(i64 8, ptr %2) #3
  call void @llvm.lifetime.end.p0(i64 4, ptr %1) #3
  ret i32 %86
}