; Function Attrs: nounwind uwtable
define internal range(i32 0, 2) i32 @test_check_private_key() #0 {
  %1 = tail call ptr @RSA_new() #2
  %2 = tail call i32 @test_ptr(ptr noundef nonnull @.str.11, i32 noundef 509, ptr noundef nonnull @.str.43, ptr noundef %1) #2
  %.not = icmp eq i32 %2, 0
  br i1 %.not, label %.thread, label %3

3:                                                ; preds = %0
  %4 = tail call i32 @ossl_rsa_sp800_56b_check_private(ptr noundef %1) #2
  %5 = icmp ne i32 %4, 0
  %6 = zext i1 %5 to i32
  %7 = tail call i32 @test_false(ptr noundef nonnull @.str.11, i32 noundef 511, ptr noundef nonnull @.str.89, i32 noundef %6) #2
  %.not19 = icmp eq i32 %7, 0
  br i1 %.not19, label %.thread, label %8

8:                                                ; preds = %3
  %9 = tail call ptr @BN_new() #2
  %.not.i = icmp eq ptr %9, null
  br i1 %.not.i, label %bn_load_new.exit, label %10

10:                                               ; preds = %8
  %11 = tail call ptr @BN_bin2bn(ptr noundef nonnull @cav_n, i32 noundef 256, ptr noundef nonnull %9) #2
  br label %bn_load_new.exit

bn_load_new.exit:                                 ; preds = %8, %10
  %12 = tail call i32 @test_ptr(ptr noundef nonnull @.str.11, i32 noundef 513, ptr noundef nonnull @.str.90, ptr noundef %9) #2
  %.not20 = icmp eq i32 %12, 0
  br i1 %.not20, label %.thread, label %13

13:                                               ; preds = %bn_load_new.exit
  %14 = tail call ptr @BN_new() #2
  %.not.i27 = icmp eq ptr %14, null
  br i1 %.not.i27, label %bn_load_new.exit28, label %15

15:                                               ; preds = %13
  %16 = tail call ptr @BN_bin2bn(ptr noundef nonnull @cav_d, i32 noundef 256, ptr noundef nonnull %14) #2
  br label %bn_load_new.exit28

bn_load_new.exit28:                               ; preds = %13, %15
  %17 = tail call i32 @test_ptr(ptr noundef nonnull @.str.11, i32 noundef 514, ptr noundef nonnull @.str.91, ptr noundef %14) #2
  %.not21 = icmp eq i32 %17, 0
  br i1 %.not21, label %.thread, label %18

18:                                               ; preds = %bn_load_new.exit28
  %19 = tail call ptr @BN_new() #2
  %.not.i29 = icmp eq ptr %19, null
  br i1 %.not.i29, label %bn_load_new.exit30, label %20

20:                                               ; preds = %18
  %21 = tail call ptr @BN_bin2bn(ptr noundef nonnull @cav_e, i32 noundef 3, ptr noundef nonnull %19) #2
  br label %bn_load_new.exit30

bn_load_new.exit30:                               ; preds = %18, %20
  %22 = tail call i32 @test_ptr(ptr noundef nonnull @.str.11, i32 noundef 515, ptr noundef nonnull @.str.92, ptr noundef %19) #2
  %.not22 = icmp eq i32 %22, 0
  br i1 %.not22, label %.thread, label %23

23:                                               ; preds = %bn_load_new.exit30
  %24 = tail call i32 @RSA_set0_key(ptr noundef %1, ptr noundef %9, ptr noundef %19, ptr noundef %14) #2
  %25 = icmp ne i32 %24, 0
  %26 = zext i1 %25 to i32
  %27 = tail call i32 @test_true(ptr noundef nonnull @.str.11, i32 noundef 516, ptr noundef nonnull @.str.53, i32 noundef %26) #2
  %.not37 = icmp eq i32 %27, 0
  br i1 %.not37, label %.thread, label %28

.thread:                                          ; preds = %0, %3, %bn_load_new.exit, %bn_load_new.exit28, %bn_load_new.exit30, %23
  %.036 = phi ptr [ %19, %23 ], [ null, %0 ], [ null, %3 ], [ null, %bn_load_new.exit ], [ null, %bn_load_new.exit28 ], [ %19, %bn_load_new.exit30 ]
  %.01635 = phi ptr [ %14, %23 ], [ null, %0 ], [ null, %3 ], [ null, %bn_load_new.exit ], [ %14, %bn_load_new.exit28 ], [ %14, %bn_load_new.exit30 ]
  %.01734 = phi ptr [ %9, %23 ], [ null, %0 ], [ null, %3 ], [ %9, %bn_load_new.exit ], [ %9, %bn_load_new.exit28 ], [ %9, %bn_load_new.exit30 ]
  tail call void @BN_free(ptr noundef %.01734) #2
  tail call void @BN_free(ptr noundef %.036) #2
  tail call void @BN_free(ptr noundef %.01635) #2
  br label %53

28:                                               ; preds = %23
  %29 = tail call i32 @ossl_rsa_sp800_56b_check_private(ptr noundef %1) #2
  %30 = icmp ne i32 %29, 0
  %31 = zext i1 %30 to i32
  %32 = tail call i32 @test_true(ptr noundef nonnull @.str.11, i32 noundef 524, ptr noundef nonnull @.str.89, i32 noundef %31) #2
  %.not23 = icmp eq i32 %32, 0
  br i1 %.not23, label %53, label %33

33:                                               ; preds = %28
  %34 = tail call i32 @BN_set_word(ptr noundef %14, i64 noundef 0) #2
  %35 = icmp ne i32 %34, 0
  %36 = zext i1 %35 to i32
  %37 = tail call i32 @test_true(ptr noundef nonnull @.str.11, i32 noundef 526, ptr noundef nonnull @.str.93, i32 noundef %36) #2
  %.not24 = icmp eq i32 %37, 0
  br i1 %.not24, label %53, label %38

38:                                               ; preds = %33
  %39 = tail call i32 @ossl_rsa_sp800_56b_check_private(ptr noundef %1) #2
  %40 = icmp ne i32 %39, 0
  %41 = zext i1 %40 to i32
  %42 = tail call i32 @test_false(ptr noundef nonnull @.str.11, i32 noundef 527, ptr noundef nonnull @.str.89, i32 noundef %41) #2
  %.not25 = icmp eq i32 %42, 0
  br i1 %.not25, label %53, label %43

43:                                               ; preds = %38
  %44 = tail call ptr @BN_copy(ptr noundef %14, ptr noundef %9) #2
  %45 = tail call i32 @test_ptr(ptr noundef nonnull @.str.11, i32 noundef 529, ptr noundef nonnull @.str.94, ptr noundef %44) #2
  %.not26 = icmp eq i32 %45, 0
  br i1 %.not26, label %53, label %46

46:                                               ; preds = %43
  %47 = tail call i32 @ossl_rsa_sp800_56b_check_private(ptr noundef %1) #2
  %48 = icmp ne i32 %47, 0
  %49 = zext i1 %48 to i32
  %50 = tail call i32 @test_false(ptr noundef nonnull @.str.11, i32 noundef 530, ptr noundef nonnull @.str.89, i32 noundef %49) #2
  %51 = icmp ne i32 %50, 0
  %52 = zext i1 %51 to i32
  br label %53

53:                                               ; preds = %28, %33, %38, %43, %46, %.thread
  %.018 = phi i32 [ 0, %.thread ], [ 0, %43 ], [ 0, %38 ], [ 0, %33 ], [ 0, %28 ], [ %52, %46 ]
  tail call void @RSA_free(ptr noundef %1) #2
  ret i32 %.018
}